target datalayout = "e-m:e-p270:32:32-p271:32:32-p272:64:64-i64:64-i128:128-f80:128-n8:16:32:64-S128"
target triple = "x86_64-pc-linux-gnu"

%struct.uv_loop_s = type { ptr, i32, [2 x ptr], %union.anon.2, ptr, i32, i64, i32, [2 x ptr], [2 x ptr], ptr, i32, i32, [2 x ptr], %union.pthread_mutex_t, %struct.uv_async_s, %union.pthread_rwlock_t, ptr, [2 x ptr], [2 x ptr], [2 x ptr], [2 x ptr], [2 x ptr], ptr, %struct.uv__io_s, i32, %struct.anon, i64, i64, [2 x i32], %struct.uv__io_s, %struct.uv_signal_s, i32, %struct.uv__io_s, ptr, i32 }
%union.anon.2 = type { ptr }
%union.pthread_mutex_t = type { %struct.__pthread_mutex_s }
%struct.__pthread_mutex_s = type { i32, i32, i32, i32, i32, i16, i16, %struct.__pthread_internal_list }
%struct.__pthread_internal_list = type { ptr, ptr }
%struct.uv_async_s = type { ptr, ptr, i32, ptr, [2 x ptr], %union.anon.3, ptr, i32, ptr, [2 x ptr], i32 }
%union.anon.3 = type { [4 x ptr] }
%union.pthread_rwlock_t = type { %struct.__pthread_rwlock_arch_t }
%struct.__pthread_rwlock_arch_t = type { i32, i32, i32, i32, i32, i32, i32, i32, i8, [7 x i8], i64, i32 }
%struct.anon = type { ptr, i32 }
%struct.uv_signal_s = type { ptr, ptr, i32, ptr, [2 x ptr], %union.anon.4, ptr, i32, ptr, i32, %struct.anon.5, i32, i32 }
%union.anon.4 = type { [4 x ptr] }
%struct.anon.5 = type { ptr, ptr, ptr, i32 }
%struct.uv__io_s = type { ptr, [2 x ptr], [2 x ptr], i32, i32, i32 }
%struct.uv_handle_s = type { ptr, ptr, i32, ptr, [2 x ptr], %union.anon.6, ptr, i32 }
%union.anon.6 = type { [4 x ptr] }

; Function Attrs: nounwind uwtable
define dso_local void @uv_walk(ptr noundef %0, ptr noundef %1, ptr noundef %2) #0 {
  %4 = alloca ptr, align 8
  %5 = alloca ptr, align 8
  %6 = alloca ptr, align 8
  %7 = alloca [2 x ptr], align 16
  %8 = alloca ptr, align 8
  %9 = alloca ptr, align 8
  %10 = alloca ptr, align 8
  store ptr %0, ptr %4, align 8, !tbaa !52
  store ptr %1, ptr %5, align 8, !tbaa !14
  store ptr %2, ptr %6, align 8, !tbaa !14
  call void @llvm.lifetime.start.p0(i64 16, ptr %7) #13
  call void @llvm.lifetime.start.p0(i64 8, ptr %8) #13
  call void @llvm.lifetime.start.p0(i64 8, ptr %9) #13
  br label %11

11:                                               ; preds = %3
  %12 = load ptr, ptr %4, align 8, !tbaa !52
  %13 = getelementptr inbounds nuw %struct.uv_loop_s, ptr %12, i32 0, i32 2
  %14 = load ptr, ptr %4, align 8, !tbaa !52
  %15 = getelementptr inbounds nuw %struct.uv_loop_s, ptr %14, i32 0, i32 2
  %16 = getelementptr inbounds [2 x ptr], ptr %15, i64 0, i64 0
  %17 = load ptr, ptr %16, align 8, !tbaa !14
  %18 = icmp eq ptr %13, %17
  br i1 %18, label %19, label %25

19:                                               ; preds = %11
  br label %20

20:                                               ; preds = %19
  %21 = getelementptr inbounds [2 x ptr], ptr %7, i64 0, i64 0
  store ptr %7, ptr %21, align 16, !tbaa !14
  %22 = getelementptr inbounds [2 x ptr], ptr %7, i64 0, i64 1
  store ptr %7, ptr %22, align 8, !tbaa !14
  br label %23

23:                                               ; preds = %20
  br label %24

24:                                               ; preds = %23
  br label %58

25:                                               ; preds = %11
  call void @llvm.lifetime.start.p0(i64 8, ptr %10) #13
  %26 = load ptr, ptr %4, align 8, !tbaa !52
  %27 = getelementptr inbounds nuw %struct.uv_loop_s, ptr %26, i32 0, i32 2
  %28 = getelementptr inbounds [2 x ptr], ptr %27, i64 0, i64 0
  %29 = load ptr, ptr %28, align 8, !tbaa !14
  store ptr %29, ptr %10, align 8, !tbaa !14
  br label %30

30:                                               ; preds = %25
  %31 = load ptr, ptr %4, align 8, !tbaa !52
  %32 = getelementptr inbounds nuw %struct.uv_loop_s, ptr %31, i32 0, i32 2
  %33 = getelementptr inbounds [2 x ptr], ptr %32, i64 0, i64 1
  %34 = load ptr, ptr %33, align 8, !tbaa !14
  %35 = getelementptr inbounds [2 x ptr], ptr %7, i64 0, i64 1
  store ptr %34, ptr %35, align 8, !tbaa !14
  %36 = getelementptr inbounds [2 x ptr], ptr %7, i64 0, i64 1
  %37 = load ptr, ptr %36, align 8, !tbaa !14
  %38 = getelementptr inbounds [2 x ptr], ptr %37, i64 0, i64 0
  store ptr %7, ptr %38, align 8, !tbaa !14
  %39 = load ptr, ptr %10, align 8, !tbaa !14
  %40 = getelementptr inbounds [2 x ptr], ptr %7, i64 0, i64 0
  store ptr %39, ptr %40, align 16, !tbaa !14
  %41 = load ptr, ptr %10, align 8, !tbaa !14
  %42 = getelementptr inbounds [2 x ptr], ptr %41, i64 0, i64 1
  %43 = load ptr, ptr %42, align 8, !tbaa !14
  %44 = load ptr, ptr %4, align 8, !tbaa !52
  %45 = getelementptr inbounds nuw %struct.uv_loop_s, ptr %44, i32 0, i32 2
  %46 = getelementptr inbounds [2 x ptr], ptr %45, i64 0, i64 1
  store ptr %43, ptr %46, align 8, !tbaa !14
  %47 = load ptr, ptr %4, align 8, !tbaa !52
  %48 = getelementptr inbounds nuw %struct.uv_loop_s, ptr %47, i32 0, i32 2
  %49 = load ptr, ptr %4, align 8, !tbaa !52
  %50 = getelementptr inbounds nuw %struct.uv_loop_s, ptr %49, i32 0, i32 2
  %51 = getelementptr inbounds [2 x ptr], ptr %50, i64 0, i64 1
  %52 = load ptr, ptr %51, align 8, !tbaa !14
  %53 = getelementptr inbounds [2 x ptr], ptr %52, i64 0, i64 0
  store ptr %48, ptr %53, align 8, !tbaa !14
  %54 = load ptr, ptr %10, align 8, !tbaa !14
  %55 = getelementptr inbounds [2 x ptr], ptr %54, i64 0, i64 1
  store ptr %7, ptr %55, align 8, !tbaa !14
  br label %56

56:                                               ; preds = %30
  br label %57

57:                                               ; preds = %56
  call void @llvm.lifetime.end.p0(i64 8, ptr %10) #13
  br label %58

58:                                               ; preds = %57, %24
  br label %59

59:                                               ; preds = %58
  br label %60

60:                                               ; preds = %59
  br label %61

61:                                               ; preds = %116, %115, %60
  %62 = getelementptr inbounds [2 x ptr], ptr %7, i64 0, i64 0
  %63 = load ptr, ptr %62, align 16, !tbaa !14
  %64 = icmp eq ptr %7, %63
  %65 = xor i1 %64, true
  br i1 %65, label %66, label %120

66:                                               ; preds = %61
  %67 = getelementptr inbounds [2 x ptr], ptr %7, i64 0, i64 0
  %68 = load ptr, ptr %67, align 16, !tbaa !14
  store ptr %68, ptr %8, align 8, !tbaa !14
  %69 = load ptr, ptr %8, align 8, !tbaa !14
  %70 = getelementptr inbounds i8, ptr %69, i64 -32
  store ptr %70, ptr %9, align 8, !tbaa !63
  br label %71

71:                                               ; preds = %66
  %72 = load ptr, ptr %8, align 8, !tbaa !14
  %73 = getelementptr inbounds [2 x ptr], ptr %72, i64 0, i64 0
  %74 = load ptr, ptr %73, align 8, !tbaa !14
  %75 = load ptr, ptr %8, align 8, !tbaa !14
  %76 = getelementptr inbounds [2 x ptr], ptr %75, i64 0, i64 1
  %77 = load ptr, ptr %76, align 8, !tbaa !14
  %78 = getelementptr inbounds [2 x ptr], ptr %77, i64 0, i64 0
  store ptr %74, ptr %78, align 8, !tbaa !14
  %79 = load ptr, ptr %8, align 8, !tbaa !14
  %80 = getelementptr inbounds [2 x ptr], ptr %79, i64 0, i64 1
  %81 = load ptr, ptr %80, align 8, !tbaa !14
  %82 = load ptr, ptr %8, align 8, !tbaa !14
  %83 = getelementptr inbounds [2 x ptr], ptr %82, i64 0, i64 0
  %84 = load ptr, ptr %83, align 8, !tbaa !14
  %85 = getelementptr inbounds [2 x ptr], ptr %84, i64 0, i64 1
  store ptr %81, ptr %85, align 8, !tbaa !14
  br label %86

86:                                               ; preds = %71
  br label %87

87:                                               ; preds = %86
  br label %88

88:                                               ; preds = %87
  %89 = load ptr, ptr %4, align 8, !tbaa !52
  %90 = getelementptr inbounds nuw %struct.uv_loop_s, ptr %89, i32 0, i32 2
  %91 = load ptr, ptr %8, align 8, !tbaa !14
  %92 = getelementptr inbounds [2 x ptr], ptr %91, i64 0, i64 0
  store ptr %90, ptr %92, align 8, !tbaa !14
  %93 = load ptr, ptr %4, align 8, !tbaa !52
  %94 = getelementptr inbounds nuw %struct.uv_loop_s, ptr %93, i32 0, i32 2
  %95 = getelementptr inbounds [2 x ptr], ptr %94, i64 0, i64 1
  %96 = load ptr, ptr %95, align 8, !tbaa !14
  %97 = load ptr, ptr %8, align 8, !tbaa !14
  %98 = getelementptr inbounds [2 x ptr], ptr %97, i64 0, i64 1
  store ptr %96, ptr %98, align 8, !tbaa !14
  %99 = load ptr, ptr %8, align 8, !tbaa !14
  %100 = load ptr, ptr %8, align 8, !tbaa !14
  %101 = getelementptr inbounds [2 x ptr], ptr %100, i64 0, i64 1
  %102 = load ptr, ptr %101, align 8, !tbaa !14
  %103 = getelementptr inbounds [2 x ptr], ptr %102, i64 0, i64 0
  store ptr %99, ptr %103, align 8, !tbaa !14
  %104 = load ptr, ptr %8, align 8, !tbaa !14
  %105 = load ptr, ptr %4, align 8, !tbaa !52
  %106 = getelementptr inbounds nuw %struct.uv_loop_s, ptr %105, i32 0, i32 2
  %107 = getelementptr inbounds [2 x ptr], ptr %106, i64 0, i64 1
  store ptr %104, ptr %107, align 8, !tbaa !14
  br label %108

108:                                              ; preds = %88
  br label %109

109:                                              ; preds = %108
  %110 = load ptr, ptr %9, align 8, !tbaa !63
  %111 = getelementptr inbounds nuw %struct.uv_handle_s, ptr %110, i32 0, i32 7
  %112 = load i32, ptr %111, align 8, !tbaa !64
  %113 = and i32 %112, 16
  %114 = icmp ne i32 %113, 0
  br i1 %114, label %115, label %116

115:                                              ; preds = %109
  br label %61, !llvm.loop !66

116:                                              ; preds = %109
  %117 = load ptr, ptr %5, align 8, !tbaa !14
  %118 = load ptr, ptr %9, align 8, !tbaa !63
  %119 = load ptr, ptr %6, align 8, !tbaa !14
  call void %117(ptr noundef %118, ptr noundef %119)
  br label %61, !llvm.loop !66

120:                                              ; preds = %61
  call void @llvm.lifetime.end.p0(i64 8, ptr %9) #13
  call void @llvm.lifetime.end.p0(i64 8, ptr %8) #13
  call void @llvm.lifetime.end.p0(i64 16, ptr %7) #13
  ret void
}