; Function Attrs: nounwind uwtable
define dso_local void @uv_walk(ptr noundef %0, ptr noundef readonly captures(none) %1, ptr noundef %2) local_unnamed_addr #0 {
  %4 = alloca [2 x ptr], align 16
  call void @llvm.lifetime.start.p0(i64 16, ptr nonnull %4) #26
  %5 = getelementptr inbounds nuw i8, ptr %0, i64 16
  %6 = load ptr, ptr %5, align 8, !tbaa !39
  %7 = icmp eq ptr %5, %6
  br i1 %7, label %._crit_edge, label %8

8:                                                ; preds = %3
  %9 = getelementptr inbounds nuw i8, ptr %0, i64 24
  %10 = load ptr, ptr %9, align 8, !tbaa !39
  %11 = getelementptr inbounds nuw i8, ptr %4, i64 8
  store ptr %10, ptr %11, align 8, !tbaa !39
  store ptr %4, ptr %10, align 8, !tbaa !39
  store ptr %6, ptr %4, align 16, !tbaa !39
  %12 = getelementptr inbounds nuw i8, ptr %6, i64 8
  %13 = load ptr, ptr %12, align 8, !tbaa !39
  store ptr %13, ptr %9, align 8, !tbaa !39
  store ptr %5, ptr %13, align 8, !tbaa !39
  store ptr %4, ptr %12, align 8, !tbaa !39
  %.pre = load ptr, ptr %4, align 16, !tbaa !39
  %.not29 = icmp eq ptr %4, %.pre
  br i1 %.not29, label %._crit_edge, label %.lr.ph

.lr.ph:                                           ; preds = %8
  %14 = getelementptr inbounds nuw i8, ptr %0, i64 24
  br label %15

15:                                               ; preds = %.lr.ph, %.backedge
  %16 = phi ptr [ %.pre, %.lr.ph ], [ %28, %.backedge ]
  %17 = load ptr, ptr %16, align 8, !tbaa !39
  %18 = getelementptr inbounds nuw i8, ptr %16, i64 8
  %19 = load ptr, ptr %18, align 8, !tbaa !39
  store ptr %17, ptr %19, align 8, !tbaa !39
  %20 = load ptr, ptr %18, align 8, !tbaa !39
  %21 = getelementptr inbounds nuw i8, ptr %17, i64 8
  store ptr %20, ptr %21, align 8, !tbaa !39
  store ptr %5, ptr %16, align 8, !tbaa !39
  %22 = load ptr, ptr %14, align 8, !tbaa !39
  store ptr %22, ptr %18, align 8, !tbaa !39
  store ptr %16, ptr %22, align 8, !tbaa !39
  store ptr %16, ptr %14, align 8, !tbaa !39
  %23 = getelementptr inbounds nuw i8, ptr %16, i64 56
  %24 = load i32, ptr %23, align 8, !tbaa !40
  %25 = and i32 %24, 16
  %.not28 = icmp eq i32 %25, 0
  br i1 %.not28, label %26, label %.backedge

26:                                               ; preds = %15
  %27 = getelementptr inbounds i8, ptr %16, i64 -32
  call void %1(ptr noundef nonnull %27, ptr noundef %2) #26
  br label %.backedge

.backedge:                                        ; preds = %26, %15
  %28 = load ptr, ptr %4, align 16, !tbaa !39
  %.not = icmp eq ptr %4, %28
  br i1 %.not, label %._crit_edge, label %15, !llvm.loop !42

._crit_edge:                                      ; preds = %.backedge, %3, %8
  call void @llvm.lifetime.end.p0(i64 16, ptr nonnull %4) #26
  ret void
}